; Function Attrs: mustprogress nofree norecurse nounwind willreturn memory(argmem: readwrite) uwtable
define i32 @WasmEdge_ConfigureGetMaxMemoryPage(ptr noundef readonly %0) local_unnamed_addr #13 {
  %.not = icmp eq ptr %0, null
  br i1 %.not, label %5, label %2

2:                                                ; preds = %1
  %3 = getelementptr inbounds i8, ptr %0, i64 136
  %4 = load atomic i32, ptr %3 monotonic, align 4
  br label %5

5:                                                ; preds = %1, %2
  %.0 = phi i32 [ %4, %2 ], [ 0, %1 ]
  ret i32 %.0
}